target datalayout = "e-m:e-p270:32:32-p271:32:32-p272:64:64-i64:64-i128:128-f80:128-n8:16:32:64-S128"
target triple = "x86_64-pc-linux-gnu"

; Function Attrs: nounwind uwtable
define dso_local void @KeccakP1600_ExtractAndAddBytesInLane(ptr noundef %0, i32 noundef %1, ptr noundef %2, ptr noundef %3, i32 noundef %4, i32 noundef %5) #0 {
  %7 = alloca ptr, align 8
  %8 = alloca i32, align 4
  %9 = alloca ptr, align 8
  %10 = alloca ptr, align 8
  %11 = alloca i32, align 4
  %12 = alloca i32, align 4
  %13 = alloca i64, align 8
  %14 = alloca i32, align 4
  %15 = alloca [1 x i64], align 8
  store ptr %0, ptr %7, align 8
  store i32 %1, ptr %8, align 4
  store ptr %2, ptr %9, align 8
  store ptr %3, ptr %10, align 8
  store i32 %4, ptr %11, align 4
  store i32 %5, ptr %12, align 4
  call void @llvm.lifetime.start.p0(i64 8, ptr %13) #4
  %16 = load ptr, ptr %7, align 8
  %17 = load i32, ptr %8, align 4
  %18 = zext i32 %17 to i64
  %19 = getelementptr inbounds nuw i64, ptr %16, i64 %18
  %20 = load i64, ptr %19, align 8
  store i64 %20, ptr %13, align 8
  call void @llvm.lifetime.start.p0(i64 4, ptr %14) #4
  call void @llvm.lifetime.start.p0(i64 8, ptr %15) #4
  %21 = load i64, ptr %13, align 8
  %22 = getelementptr inbounds [1 x i64], ptr %15, i64 0, i64 0
  store i64 %21, ptr %22, align 8
  store i32 0, ptr %14, align 4
  br label %23

23:                                               ; preds = %48, %6
  %24 = load i32, ptr %14, align 4
  %25 = load i32, ptr %12, align 4
  %26 = icmp ult i32 %24, %25
  br i1 %26, label %27, label %51

27:                                               ; preds = %23
  %28 = load ptr, ptr %9, align 8
  %29 = load i32, ptr %14, align 4
  %30 = zext i32 %29 to i64
  %31 = getelementptr inbounds nuw i8, ptr %28, i64 %30
  %32 = load i8, ptr %31, align 1
  %33 = zext i8 %32 to i32
  %34 = getelementptr inbounds [1 x i64], ptr %15, i64 0, i64 0
  %35 = load i32, ptr %11, align 4
  %36 = load i32, ptr %14, align 4
  %37 = add i32 %35, %36
  %38 = zext i32 %37 to i64
  %39 = getelementptr inbounds nuw i8, ptr %34, i64 %38
  %40 = load i8, ptr %39, align 1
  %41 = zext i8 %40 to i32
  %42 = xor i32 %33, %41
  %43 = trunc i32 %42 to i8
  %44 = load ptr, ptr %10, align 8
  %45 = load i32, ptr %14, align 4
  %46 = zext i32 %45 to i64
  %47 = getelementptr inbounds nuw i8, ptr %44, i64 %46
  store i8 %43, ptr %47, align 1
  br label %48

48:                                               ; preds = %27
  %49 = load i32, ptr %14, align 4
  %50 = add i32 %49, 1
  store i32 %50, ptr %14, align 4
  br label %23, !llvm.loop !17

51:                                               ; preds = %23
  call void @llvm.lifetime.end.p0(i64 8, ptr %15) #4
  call void @llvm.lifetime.end.p0(i64 4, ptr %14) #4
  call void @llvm.lifetime.end.p0(i64 8, ptr %13) #4
  ret void
}