; Function Attrs: nofree norecurse nosync nounwind memory(argmem: readwrite) uwtable
define dso_local void @KeccakP1600_ExtractAndAddBytesInLane(ptr noundef readonly captures(none) %0, i32 noundef %1, ptr noundef readonly captures(none) %2, ptr noundef writeonly captures(none) %3, i32 noundef %4, i32 noundef %5) local_unnamed_addr #5 {
  %7 = alloca [1 x i64], align 8
  %8 = zext i32 %1 to i64
  %9 = getelementptr inbounds nuw i64, ptr %0, i64 %8
  %10 = load i64, ptr %9, align 8
  call void @llvm.lifetime.start.p0(i64 8, ptr nonnull %7) #7
  store i64 %10, ptr %7, align 8
  %.not = icmp eq i32 %5, 0
  br i1 %.not, label %._crit_edge, label %.lr.ph.preheader

.lr.ph.preheader:                                 ; preds = %6
  %wide.trip.count = zext i32 %5 to i64
  br label %.lr.ph

.lr.ph:                                           ; preds = %.lr.ph.preheader, %.lr.ph
  %indvars.iv = phi i64 [ 0, %.lr.ph.preheader ], [ %indvars.iv.next, %.lr.ph ]
  %11 = getelementptr inbounds nuw i8, ptr %2, i64 %indvars.iv
  %12 = load i8, ptr %11, align 1
  %13 = trunc nuw i64 %indvars.iv to i32
  %14 = add i32 %4, %13
  %15 = zext i32 %14 to i64
  %16 = getelementptr inbounds nuw i8, ptr %7, i64 %15
  %17 = load i8, ptr %16, align 1
  %18 = xor i8 %17, %12
  %19 = getelementptr inbounds nuw i8, ptr %3, i64 %indvars.iv
  store i8 %18, ptr %19, align 1
  %indvars.iv.next = add nuw nsw i64 %indvars.iv, 1
  %exitcond.not = icmp eq i64 %indvars.iv.next, %wide.trip.count
  br i1 %exitcond.not, label %._crit_edge, label %.lr.ph, !llvm.loop !17

._crit_edge:                                      ; preds = %.lr.ph, %6
  call void @llvm.lifetime.end.p0(i64 8, ptr nonnull %7) #7
  ret void
}